; Function Attrs: mustprogress uwtable
define void @_ZN17gmx_reverse_top_tC2ERK10gmx_mtop_tbRK17ReverseTopOptions(ptr noundef nonnull writeonly align 8 captures(none) dereferenceable(8) %0, ptr noundef nonnull align 8 dereferenceable(768) %1, i1 noundef zeroext %2, ptr noundef nonnull align 1 dereferenceable(3) %3) unnamed_addr #5 align 2 personality ptr @__gxx_personality_v0 {
  tail call void @llvm.experimental.noalias.scope.decl(metadata !58)
  %5 = tail call noalias noundef nonnull dereferenceable(152) ptr @_Znwm(i64 noundef 152) #21, !noalias !58
  invoke void @_ZN17gmx_reverse_top_t4ImplC1ERK10gmx_mtop_tbRK17ReverseTopOptions(ptr noundef nonnull align 8 dereferenceable(152) %5, ptr noundef nonnull align 8 dereferenceable(768) %1, i1 noundef zeroext %2, ptr noundef nonnull align 1 dereferenceable(3) %3)
          to label %_ZSt11make_uniqueIN17gmx_reverse_top_t4ImplEJRK10gmx_mtop_tRbRK17ReverseTopOptionsEENSt8__detail9_MakeUniqIT_E15__single_objectEDpOT0_.exit unwind label %6, !noalias !58

6:                                                ; preds = %4
  %7 = landingpad { ptr, i32 }
          cleanup
  tail call void @_ZdlPvm(ptr noundef nonnull %5, i64 noundef 152) #22, !noalias !58
  resume { ptr, i32 } %7

_ZSt11make_uniqueIN17gmx_reverse_top_t4ImplEJRK10gmx_mtop_tRbRK17ReverseTopOptionsEENSt8__detail9_MakeUniqIT_E15__single_objectEDpOT0_.exit: ; preds = %4
  store ptr %5, ptr %0, align 8, !tbaa !61, !alias.scope !58
  ret void
}